; Function Attrs: mustprogress uwtable
define void @_ZN24MLRenderingGlobalToolbarC2EP7QWidget(ptr noundef nonnull align 8 dereferenceable(96) %0, ptr noundef %1) unnamed_addr #3 align 2 personality ptr @__gxx_personality_v0 {
  tail call void @_ZN8QToolBarC2EP7QWidget(ptr noundef nonnull align 8 dereferenceable(48) %0, ptr noundef %1)
  store ptr getelementptr inbounds ({ [54 x ptr], [10 x ptr] }, ptr @_ZTV24MLRenderingGlobalToolbar, i64 0, i32 0, i64 2), ptr %0, align 8
  %3 = getelementptr inbounds i8, ptr %0, i64 16
  store ptr getelementptr inbounds ({ [54 x ptr], [10 x ptr] }, ptr @_ZTV24MLRenderingGlobalToolbar, i64 0, i32 1, i64 2), ptr %3, align 8
  invoke void @_ZN24MLRenderingGlobalToolbar7initGuiEv(ptr noundef nonnull align 8 dereferenceable(96) %0)
          to label %4 unwind label %5

4:                                                ; preds = %2
  ret void

5:                                                ; preds = %2
  %6 = landingpad { ptr, i32 }
          cleanup
  tail call void @_ZN8QToolBarD2Ev(ptr noundef nonnull align 8 dereferenceable(48) %0) #23
  resume { ptr, i32 } %6
}